; Function Attrs: nounwind uwtable
define dso_local noundef i32 @anetEnableTcpNoDelay(ptr noundef %err, i32 noundef %fd) local_unnamed_addr #0 {
entry:
  %val.addr.i = alloca i32, align 4
  call void @llvm.lifetime.start.p0(i64 4, ptr nonnull %val.addr.i)
  store i32 1, ptr %val.addr.i, align 4
  %call.i = call i32 @setsockopt(i32 noundef %fd, i32 noundef 6, i32 noundef 1, ptr noundef nonnull %val.addr.i, i32 noundef 4) #10
  %cmp.i = icmp eq i32 %call.i, -1
  br i1 %cmp.i, label %if.then.i, label %anetSetTcpNoDelay.exit

if.then.i:                                        ; preds = %entry
  %call1.i = tail call ptr @__errno_location() #11
  %0 = load i32, ptr %call1.i, align 4
  %call2.i = call ptr @strerror(i32 noundef %0) #10
  call void (ptr, ptr, ...) @anetSetError(ptr noundef %err, ptr noundef nonnull @.str.13, ptr noundef %call2.i)
  br label %anetSetTcpNoDelay.exit

anetSetTcpNoDelay.exit:                           ; preds = %entry, %if.then.i
  %retval.0.i = phi i32 [ -1, %if.then.i ], [ 0, %entry ]
  call void @llvm.lifetime.end.p0(i64 4, ptr nonnull %val.addr.i)
  ret i32 %retval.0.i
}